target datalayout = "e-m:e-p270:32:32-p271:32:32-p272:64:64-i64:64-i128:128-f80:128-n8:16:32:64-S128"
target triple = "x86_64-pc-linux-gnu"

%struct.AVFilterContext = type { ptr, ptr, ptr, ptr, ptr, i32, ptr, ptr, i32, ptr, ptr, i32, i32, ptr, ptr, ptr, ptr, i32, ptr, i32, i32 }
%struct.ChorusContext = type { ptr, float, float, ptr, ptr, ptr, ptr, ptr, ptr, ptr, ptr, ptr, ptr, ptr, ptr, ptr, i32, i32, i32, i32, i32, i64 }

@.str.18 = private unnamed_addr constant [53 x i8] c"Both delays & decays & speeds & depths must be set.\0A\00", align 1
@.str.19 = private unnamed_addr constant [65 x i8] c"Number of delays & decays & speeds & depths given must be same.\0A\00", align 1
@.str.20 = private unnamed_addr constant [57 x i8] c"At least one delay & decay & speed & depth must be set.\0A\00", align 1

; Function Attrs: nounwind uwtable
define internal void @count_items(ptr noundef %0, ptr noundef %1) #1 {
  %3 = alloca ptr, align 8
  %4 = alloca ptr, align 8
  %5 = alloca ptr, align 8
  store ptr %0, ptr %3, align 8, !tbaa !69
  store ptr %1, ptr %4, align 8, !tbaa !71
  call void @llvm.lifetime.start.p0(i64 8, ptr %5) #7
  %6 = load ptr, ptr %4, align 8, !tbaa !71
  store i32 1, ptr %6, align 4, !tbaa !36
  %7 = load ptr, ptr %3, align 8, !tbaa !69
  store ptr %7, ptr %5, align 8, !tbaa !69
  br label %8

8:                                                ; preds = %22, %2
  %9 = load ptr, ptr %5, align 8, !tbaa !69
  %10 = load i8, ptr %9, align 1, !tbaa !93
  %11 = icmp ne i8 %10, 0
  br i1 %11, label %12, label %25

12:                                               ; preds = %8
  %13 = load ptr, ptr %5, align 8, !tbaa !69
  %14 = load i8, ptr %13, align 1, !tbaa !93
  %15 = sext i8 %14 to i32
  %16 = icmp eq i32 %15, 124
  br i1 %16, label %17, label %21

17:                                               ; preds = %12
  %18 = load ptr, ptr %4, align 8, !tbaa !71
  %19 = load i32, ptr %18, align 4, !tbaa !36
  %20 = add nsw i32 %19, 1
  store i32 %20, ptr %18, align 4, !tbaa !36
  br label %21

21:                                               ; preds = %17, %12
  br label %22

22:                                               ; preds = %21
  %23 = load ptr, ptr %5, align 8, !tbaa !69
  %24 = getelementptr inbounds nuw i8, ptr %23, i32 1
  store ptr %24, ptr %5, align 8, !tbaa !69
  br label %8, !llvm.loop !94

25:                                               ; preds = %8
  call void @llvm.lifetime.end.p0(i64 8, ptr %5) #7
  ret void
}

; Function Attrs: cold nounwind optsize uwtable
define internal i32 @init(ptr noundef %0) #0 {
  %2 = alloca i32, align 4
  %3 = alloca ptr, align 8
  %4 = alloca ptr, align 8
  %5 = alloca i32, align 4
  %6 = alloca i32, align 4
  %7 = alloca i32, align 4
  %8 = alloca i32, align 4
  %9 = alloca i32, align 4
  store ptr %0, ptr %3, align 8, !tbaa !4
  call void @llvm.lifetime.start.p0(i64 8, ptr %4) #7
  %10 = load ptr, ptr %3, align 8, !tbaa !4
  %11 = getelementptr inbounds nuw %struct.AVFilterContext, ptr %10, i32 0, i32 9
  %12 = load ptr, ptr %11, align 8, !tbaa !9
  store ptr %12, ptr %4, align 8, !tbaa !22
  call void @llvm.lifetime.start.p0(i64 4, ptr %5) #7
  call void @llvm.lifetime.start.p0(i64 4, ptr %6) #7
  call void @llvm.lifetime.start.p0(i64 4, ptr %7) #7
  call void @llvm.lifetime.start.p0(i64 4, ptr %8) #7
  %13 = load ptr, ptr %4, align 8, !tbaa !22
  %14 = getelementptr inbounds nuw %struct.ChorusContext, ptr %13, i32 0, i32 3
  %15 = load ptr, ptr %14, align 8, !tbaa !24
  %16 = icmp ne ptr %15, null
  br i1 %16, label %17, label %32

17:                                               ; preds = %1
  %18 = load ptr, ptr %4, align 8, !tbaa !22
  %19 = getelementptr inbounds nuw %struct.ChorusContext, ptr %18, i32 0, i32 4
  %20 = load ptr, ptr %19, align 8, !tbaa !32
  %21 = icmp ne ptr %20, null
  br i1 %21, label %22, label %32

22:                                               ; preds = %17
  %23 = load ptr, ptr %4, align 8, !tbaa !22
  %24 = getelementptr inbounds nuw %struct.ChorusContext, ptr %23, i32 0, i32 5
  %25 = load ptr, ptr %24, align 8, !tbaa !33
  %26 = icmp ne ptr %25, null
  br i1 %26, label %27, label %32

27:                                               ; preds = %22
  %28 = load ptr, ptr %4, align 8, !tbaa !22
  %29 = getelementptr inbounds nuw %struct.ChorusContext, ptr %28, i32 0, i32 6
  %30 = load ptr, ptr %29, align 8, !tbaa !34
  %31 = icmp ne ptr %30, null
  br i1 %31, label %34, label %32

32:                                               ; preds = %27, %22, %17, %1
  %33 = load ptr, ptr %3, align 8, !tbaa !4
  call void (ptr, i32, ptr, ...) @av_log(ptr noundef %33, i32 noundef 16, ptr noundef @.str.18)
  store i32 -22, ptr %2, align 4
  store i32 1, ptr %9, align 4
  br label %175

34:                                               ; preds = %27
  %35 = load ptr, ptr %4, align 8, !tbaa !22
  %36 = getelementptr inbounds nuw %struct.ChorusContext, ptr %35, i32 0, i32 3
  %37 = load ptr, ptr %36, align 8, !tbaa !24
  call void @count_items(ptr noundef %37, ptr noundef %5)
  %38 = load ptr, ptr %4, align 8, !tbaa !22
  %39 = getelementptr inbounds nuw %struct.ChorusContext, ptr %38, i32 0, i32 4
  %40 = load ptr, ptr %39, align 8, !tbaa !32
  call void @count_items(ptr noundef %40, ptr noundef %6)
  %41 = load ptr, ptr %4, align 8, !tbaa !22
  %42 = getelementptr inbounds nuw %struct.ChorusContext, ptr %41, i32 0, i32 5
  %43 = load ptr, ptr %42, align 8, !tbaa !33
  call void @count_items(ptr noundef %43, ptr noundef %7)
  %44 = load ptr, ptr %4, align 8, !tbaa !22
  %45 = getelementptr inbounds nuw %struct.ChorusContext, ptr %44, i32 0, i32 6
  %46 = load ptr, ptr %45, align 8, !tbaa !34
  call void @count_items(ptr noundef %46, ptr noundef %8)
  %47 = load ptr, ptr %4, align 8, !tbaa !22
  %48 = getelementptr inbounds nuw %struct.ChorusContext, ptr %47, i32 0, i32 7
  %49 = load ptr, ptr %48, align 8, !tbaa !35
  %50 = load i32, ptr %5, align 4, !tbaa !36
  %51 = sext i32 %50 to i64
  %52 = call ptr @av_realloc_f(ptr noundef %49, i64 noundef %51, i64 noundef 4)
  %53 = load ptr, ptr %4, align 8, !tbaa !22
  %54 = getelementptr inbounds nuw %struct.ChorusContext, ptr %53, i32 0, i32 7
  store ptr %52, ptr %54, align 8, !tbaa !35
  %55 = load ptr, ptr %4, align 8, !tbaa !22
  %56 = getelementptr inbounds nuw %struct.ChorusContext, ptr %55, i32 0, i32 8
  %57 = load ptr, ptr %56, align 8, !tbaa !37
  %58 = load i32, ptr %6, align 4, !tbaa !36
  %59 = sext i32 %58 to i64
  %60 = call ptr @av_realloc_f(ptr noundef %57, i64 noundef %59, i64 noundef 4)
  %61 = load ptr, ptr %4, align 8, !tbaa !22
  %62 = getelementptr inbounds nuw %struct.ChorusContext, ptr %61, i32 0, i32 8
  store ptr %60, ptr %62, align 8, !tbaa !37
  %63 = load ptr, ptr %4, align 8, !tbaa !22
  %64 = getelementptr inbounds nuw %struct.ChorusContext, ptr %63, i32 0, i32 9
  %65 = load ptr, ptr %64, align 8, !tbaa !38
  %66 = load i32, ptr %7, align 4, !tbaa !36
  %67 = sext i32 %66 to i64
  %68 = call ptr @av_realloc_f(ptr noundef %65, i64 noundef %67, i64 noundef 4)
  %69 = load ptr, ptr %4, align 8, !tbaa !22
  %70 = getelementptr inbounds nuw %struct.ChorusContext, ptr %69, i32 0, i32 9
  store ptr %68, ptr %70, align 8, !tbaa !38
  %71 = load ptr, ptr %4, align 8, !tbaa !22
  %72 = getelementptr inbounds nuw %struct.ChorusContext, ptr %71, i32 0, i32 10
  %73 = load ptr, ptr %72, align 8, !tbaa !39
  %74 = load i32, ptr %8, align 4, !tbaa !36
  %75 = sext i32 %74 to i64
  %76 = call ptr @av_realloc_f(ptr noundef %73, i64 noundef %75, i64 noundef 4)
  %77 = load ptr, ptr %4, align 8, !tbaa !22
  %78 = getelementptr inbounds nuw %struct.ChorusContext, ptr %77, i32 0, i32 10
  store ptr %76, ptr %78, align 8, !tbaa !39
  %79 = load ptr, ptr %4, align 8, !tbaa !22
  %80 = getelementptr inbounds nuw %struct.ChorusContext, ptr %79, i32 0, i32 7
  %81 = load ptr, ptr %80, align 8, !tbaa !35
  %82 = icmp ne ptr %81, null
  br i1 %82, label %83, label %98

83:                                               ; preds = %34
  %84 = load ptr, ptr %4, align 8, !tbaa !22
  %85 = getelementptr inbounds nuw %struct.ChorusContext, ptr %84, i32 0, i32 8
  %86 = load ptr, ptr %85, align 8, !tbaa !37
  %87 = icmp ne ptr %86, null
  br i1 %87, label %88, label %98

88:                                               ; preds = %83
  %89 = load ptr, ptr %4, align 8, !tbaa !22
  %90 = getelementptr inbounds nuw %struct.ChorusContext, ptr %89, i32 0, i32 9
  %91 = load ptr, ptr %90, align 8, !tbaa !38
  %92 = icmp ne ptr %91, null
  br i1 %92, label %93, label %98

93:                                               ; preds = %88
  %94 = load ptr, ptr %4, align 8, !tbaa !22
  %95 = getelementptr inbounds nuw %struct.ChorusContext, ptr %94, i32 0, i32 10
  %96 = load ptr, ptr %95, align 8, !tbaa !39
  %97 = icmp ne ptr %96, null
  br i1 %97, label %99, label %98

98:                                               ; preds = %93, %88, %83, %34
  store i32 -12, ptr %2, align 4
  store i32 1, ptr %9, align 4
  br label %175

99:                                               ; preds = %93
  %100 = load ptr, ptr %4, align 8, !tbaa !22
  %101 = getelementptr inbounds nuw %struct.ChorusContext, ptr %100, i32 0, i32 3
  %102 = load ptr, ptr %101, align 8, !tbaa !24
  %103 = load ptr, ptr %4, align 8, !tbaa !22
  %104 = getelementptr inbounds nuw %struct.ChorusContext, ptr %103, i32 0, i32 7
  %105 = load ptr, ptr %104, align 8, !tbaa !35
  call void @fill_items(ptr noundef %102, ptr noundef %5, ptr noundef %105)
  %106 = load ptr, ptr %4, align 8, !tbaa !22
  %107 = getelementptr inbounds nuw %struct.ChorusContext, ptr %106, i32 0, i32 4
  %108 = load ptr, ptr %107, align 8, !tbaa !32
  %109 = load ptr, ptr %4, align 8, !tbaa !22
  %110 = getelementptr inbounds nuw %struct.ChorusContext, ptr %109, i32 0, i32 8
  %111 = load ptr, ptr %110, align 8, !tbaa !37
  call void @fill_items(ptr noundef %108, ptr noundef %6, ptr noundef %111)
  %112 = load ptr, ptr %4, align 8, !tbaa !22
  %113 = getelementptr inbounds nuw %struct.ChorusContext, ptr %112, i32 0, i32 5
  %114 = load ptr, ptr %113, align 8, !tbaa !33
  %115 = load ptr, ptr %4, align 8, !tbaa !22
  %116 = getelementptr inbounds nuw %struct.ChorusContext, ptr %115, i32 0, i32 9
  %117 = load ptr, ptr %116, align 8, !tbaa !38
  call void @fill_items(ptr noundef %114, ptr noundef %7, ptr noundef %117)
  %118 = load ptr, ptr %4, align 8, !tbaa !22
  %119 = getelementptr inbounds nuw %struct.ChorusContext, ptr %118, i32 0, i32 6
  %120 = load ptr, ptr %119, align 8, !tbaa !34
  %121 = load ptr, ptr %4, align 8, !tbaa !22
  %122 = getelementptr inbounds nuw %struct.ChorusContext, ptr %121, i32 0, i32 10
  %123 = load ptr, ptr %122, align 8, !tbaa !39
  call void @fill_items(ptr noundef %120, ptr noundef %8, ptr noundef %123)
  %124 = load i32, ptr %5, align 4, !tbaa !36
  %125 = load i32, ptr %6, align 4, !tbaa !36
  %126 = icmp ne i32 %124, %125
  br i1 %126, label %127, label %137

127:                                              ; preds = %99
  %128 = load i32, ptr %5, align 4, !tbaa !36
  %129 = load i32, ptr %7, align 4, !tbaa !36
  %130 = icmp ne i32 %128, %129
  br i1 %130, label %131, label %137

131:                                              ; preds = %127
  %132 = load i32, ptr %5, align 4, !tbaa !36
  %133 = load i32, ptr %8, align 4, !tbaa !36
  %134 = icmp ne i32 %132, %133
  br i1 %134, label %135, label %137

135:                                              ; preds = %131
  %136 = load ptr, ptr %3, align 8, !tbaa !4
  call void (ptr, i32, ptr, ...) @av_log(ptr noundef %136, i32 noundef 16, ptr noundef @.str.19)
  store i32 -22, ptr %2, align 4
  store i32 1, ptr %9, align 4
  br label %175

137:                                              ; preds = %131, %127, %99
  %138 = load i32, ptr %5, align 4, !tbaa !36
  %139 = load ptr, ptr %4, align 8, !tbaa !22
  %140 = getelementptr inbounds nuw %struct.ChorusContext, ptr %139, i32 0, i32 16
  store i32 %138, ptr %140, align 8, !tbaa !40
  %141 = load ptr, ptr %4, align 8, !tbaa !22
  %142 = getelementptr inbounds nuw %struct.ChorusContext, ptr %141, i32 0, i32 16
  %143 = load i32, ptr %142, align 8, !tbaa !40
  %144 = icmp slt i32 %143, 1
  br i1 %144, label %145, label %147

145:                                              ; preds = %137
  %146 = load ptr, ptr %3, align 8, !tbaa !4
  call void (ptr, i32, ptr, ...) @av_log(ptr noundef %146, i32 noundef 16, ptr noundef @.str.20)
  store i32 -22, ptr %2, align 4
  store i32 1, ptr %9, align 4
  br label %175

147:                                              ; preds = %137
  %148 = load ptr, ptr %4, align 8, !tbaa !22
  %149 = getelementptr inbounds nuw %struct.ChorusContext, ptr %148, i32 0, i32 16
  %150 = load i32, ptr %149, align 8, !tbaa !40
  %151 = sext i32 %150 to i64
  %152 = call noalias ptr @av_calloc(i64 noundef %151, i64 noundef 4)
  %153 = load ptr, ptr %4, align 8, !tbaa !22
  %154 = getelementptr inbounds nuw %struct.ChorusContext, ptr %153, i32 0, i32 13
  store ptr %152, ptr %154, align 8, !tbaa !41
  %155 = load ptr, ptr %4, align 8, !tbaa !22
  %156 = getelementptr inbounds nuw %struct.ChorusContext, ptr %155, i32 0, i32 16
  %157 = load i32, ptr %156, align 8, !tbaa !40
  %158 = sext i32 %157 to i64
  %159 = call noalias ptr @av_calloc(i64 noundef %158, i64 noundef 8)
  %160 = load ptr, ptr %4, align 8, !tbaa !22
  %161 = getelementptr inbounds nuw %struct.ChorusContext, ptr %160, i32 0, i32 14
  store ptr %159, ptr %161, align 8, !tbaa !42
  %162 = load ptr, ptr %4, align 8, !tbaa !22
  %163 = getelementptr inbounds nuw %struct.ChorusContext, ptr %162, i32 0, i32 13
  %164 = load ptr, ptr %163, align 8, !tbaa !41
  %165 = icmp ne ptr %164, null
  br i1 %165, label %166, label %171

166:                                              ; preds = %147
  %167 = load ptr, ptr %4, align 8, !tbaa !22
  %168 = getelementptr inbounds nuw %struct.ChorusContext, ptr %167, i32 0, i32 14
  %169 = load ptr, ptr %168, align 8, !tbaa !42
  %170 = icmp ne ptr %169, null
  br i1 %170, label %172, label %171

171:                                              ; preds = %166, %147
  store i32 -12, ptr %2, align 4
  store i32 1, ptr %9, align 4
  br label %175

172:                                              ; preds = %166
  %173 = load ptr, ptr %4, align 8, !tbaa !22
  %174 = getelementptr inbounds nuw %struct.ChorusContext, ptr %173, i32 0, i32 21
  store i64 -9223372036854775808, ptr %174, align 8, !tbaa !43
  store i32 0, ptr %2, align 4
  store i32 1, ptr %9, align 4
  br label %175

175:                                              ; preds = %172, %171, %145, %135, %98, %32
  call void @llvm.lifetime.end.p0(i64 4, ptr %8) #7
  call void @llvm.lifetime.end.p0(i64 4, ptr %7) #7
  call void @llvm.lifetime.end.p0(i64 4, ptr %6) #7
  call void @llvm.lifetime.end.p0(i64 4, ptr %5) #7
  call void @llvm.lifetime.end.p0(i64 8, ptr %4) #7
  %176 = load i32, ptr %2, align 4
  ret i32 %176
}