; Function Attrs: cold nounwind optsize uwtable
define internal range(i32 -22, 1) i32 @init(ptr noundef %0) #0 {
  %2 = alloca i32, align 4
  %3 = alloca i32, align 4
  %4 = alloca i32, align 4
  %5 = alloca i32, align 4
  %6 = getelementptr inbounds nuw i8, ptr %0, i64 72
  %7 = load ptr, ptr %6, align 8, !tbaa !4
  call void @llvm.lifetime.start.p0(i64 4, ptr nonnull %2) #8
  call void @llvm.lifetime.start.p0(i64 4, ptr nonnull %3) #8
  call void @llvm.lifetime.start.p0(i64 4, ptr nonnull %4) #8
  call void @llvm.lifetime.start.p0(i64 4, ptr nonnull %5) #8
  %8 = getelementptr inbounds nuw i8, ptr %7, i64 16
  %9 = load ptr, ptr %8, align 8, !tbaa !20
  %.not = icmp eq ptr %9, null
  br i1 %.not, label %19, label %10

10:                                               ; preds = %1
  %11 = getelementptr inbounds nuw i8, ptr %7, i64 24
  %12 = load ptr, ptr %11, align 8, !tbaa !28
  %.not45 = icmp eq ptr %12, null
  br i1 %.not45, label %19, label %13

13:                                               ; preds = %10
  %14 = getelementptr inbounds nuw i8, ptr %7, i64 32
  %15 = load ptr, ptr %14, align 8, !tbaa !29
  %.not46 = icmp eq ptr %15, null
  br i1 %.not46, label %19, label %16

16:                                               ; preds = %13
  %17 = getelementptr inbounds nuw i8, ptr %7, i64 40
  %18 = load ptr, ptr %17, align 8, !tbaa !30
  %.not47 = icmp eq ptr %18, null
  br i1 %.not47, label %19, label %.preheader

19:                                               ; preds = %16, %13, %10, %1
  tail call void (ptr, i32, ptr, ...) @av_log(ptr noundef nonnull %0, i32 noundef 16, ptr noundef nonnull @.str.18) #8
  br label %108

.preheader:                                       ; preds = %16, %25
  %20 = phi i32 [ %26, %25 ], [ 1, %16 ]
  %21 = phi i32 [ %27, %25 ], [ 1, %16 ]
  %.0.i = phi ptr [ %28, %25 ], [ %9, %16 ]
  %22 = load i8, ptr %.0.i, align 1, !tbaa !31
  switch i8 %22, label %25 [
    i8 0, label %count_items.exit
    i8 124, label %23
  ]

23:                                               ; preds = %.preheader
  %24 = add nsw i32 %21, 1
  br label %25

25:                                               ; preds = %23, %.preheader
  %26 = phi i32 [ %20, %.preheader ], [ %24, %23 ]
  %27 = phi i32 [ %21, %.preheader ], [ %24, %23 ]
  %28 = getelementptr inbounds nuw i8, ptr %.0.i, i64 1
  br label %.preheader, !llvm.loop !32

count_items.exit:                                 ; preds = %.preheader
  store i32 %20, ptr %2, align 4
  br label %29

29:                                               ; preds = %35, %count_items.exit
  %30 = phi i32 [ 1, %count_items.exit ], [ %36, %35 ]
  %31 = phi i32 [ 1, %count_items.exit ], [ %37, %35 ]
  %.0.i60 = phi ptr [ %12, %count_items.exit ], [ %38, %35 ]
  %32 = load i8, ptr %.0.i60, align 1, !tbaa !31
  switch i8 %32, label %35 [
    i8 0, label %count_items.exit61
    i8 124, label %33
  ]

33:                                               ; preds = %29
  %34 = add nsw i32 %31, 1
  br label %35

35:                                               ; preds = %33, %29
  %36 = phi i32 [ %30, %29 ], [ %34, %33 ]
  %37 = phi i32 [ %31, %29 ], [ %34, %33 ]
  %38 = getelementptr inbounds nuw i8, ptr %.0.i60, i64 1
  br label %29, !llvm.loop !32

count_items.exit61:                               ; preds = %29
  store i32 %30, ptr %3, align 4
  br label %39

39:                                               ; preds = %45, %count_items.exit61
  %40 = phi i32 [ 1, %count_items.exit61 ], [ %46, %45 ]
  %41 = phi i32 [ 1, %count_items.exit61 ], [ %47, %45 ]
  %.0.i62 = phi ptr [ %15, %count_items.exit61 ], [ %48, %45 ]
  %42 = load i8, ptr %.0.i62, align 1, !tbaa !31
  switch i8 %42, label %45 [
    i8 0, label %count_items.exit63
    i8 124, label %43
  ]

43:                                               ; preds = %39
  %44 = add nsw i32 %41, 1
  br label %45

45:                                               ; preds = %43, %39
  %46 = phi i32 [ %40, %39 ], [ %44, %43 ]
  %47 = phi i32 [ %41, %39 ], [ %44, %43 ]
  %48 = getelementptr inbounds nuw i8, ptr %.0.i62, i64 1
  br label %39, !llvm.loop !32

count_items.exit63:                               ; preds = %39
  store i32 %40, ptr %4, align 4
  br label %49

49:                                               ; preds = %55, %count_items.exit63
  %50 = phi i32 [ 1, %count_items.exit63 ], [ %56, %55 ]
  %51 = phi i32 [ 1, %count_items.exit63 ], [ %57, %55 ]
  %.0.i64 = phi ptr [ %18, %count_items.exit63 ], [ %58, %55 ]
  %52 = load i8, ptr %.0.i64, align 1, !tbaa !31
  switch i8 %52, label %55 [
    i8 0, label %count_items.exit65
    i8 124, label %53
  ]

53:                                               ; preds = %49
  %54 = add nsw i32 %51, 1
  br label %55

55:                                               ; preds = %53, %49
  %56 = phi i32 [ %50, %49 ], [ %54, %53 ]
  %57 = phi i32 [ %51, %49 ], [ %54, %53 ]
  %58 = getelementptr inbounds nuw i8, ptr %.0.i64, i64 1
  br label %49, !llvm.loop !32

count_items.exit65:                               ; preds = %49
  store i32 %50, ptr %5, align 4
  %59 = getelementptr inbounds nuw i8, ptr %7, i64 48
  %60 = load ptr, ptr %59, align 8, !tbaa !34
  %61 = sext i32 %20 to i64
  %62 = tail call ptr @av_realloc_f(ptr noundef %60, i64 noundef %61, i64 noundef 4) #8
  store ptr %62, ptr %59, align 8, !tbaa !34
  %63 = getelementptr inbounds nuw i8, ptr %7, i64 56
  %64 = load ptr, ptr %63, align 8, !tbaa !35
  %65 = sext i32 %30 to i64
  %66 = tail call ptr @av_realloc_f(ptr noundef %64, i64 noundef %65, i64 noundef 4) #8
  store ptr %66, ptr %63, align 8, !tbaa !35
  %67 = getelementptr inbounds nuw i8, ptr %7, i64 64
  %68 = load ptr, ptr %67, align 8, !tbaa !36
  %69 = sext i32 %40 to i64
  %70 = tail call ptr @av_realloc_f(ptr noundef %68, i64 noundef %69, i64 noundef 4) #8
  store ptr %70, ptr %67, align 8, !tbaa !36
  %71 = getelementptr inbounds nuw i8, ptr %7, i64 72
  %72 = load ptr, ptr %71, align 8, !tbaa !37
  %73 = sext i32 %50 to i64
  %74 = tail call ptr @av_realloc_f(ptr noundef %72, i64 noundef %73, i64 noundef 4) #8
  store ptr %74, ptr %71, align 8, !tbaa !37
  %75 = load ptr, ptr %59, align 8, !tbaa !34
  %.not48 = icmp eq ptr %75, null
  br i1 %.not48, label %108, label %76

76:                                               ; preds = %count_items.exit65
  %77 = load ptr, ptr %63, align 8, !tbaa !35
  %.not49 = icmp eq ptr %77, null
  br i1 %.not49, label %108, label %78

78:                                               ; preds = %76
  %79 = load ptr, ptr %67, align 8, !tbaa !36
  %.not50 = icmp eq ptr %79, null
  %.not51 = icmp eq ptr %74, null
  %or.cond = select i1 %.not50, i1 true, i1 %.not51
  br i1 %or.cond, label %108, label %80

80:                                               ; preds = %78
  %81 = load ptr, ptr %8, align 8, !tbaa !20
  call fastcc void @fill_items(ptr noundef %81, ptr noundef %2, ptr noundef nonnull %75)
  %82 = load ptr, ptr %11, align 8, !tbaa !28
  %83 = load ptr, ptr %63, align 8, !tbaa !35
  call fastcc void @fill_items(ptr noundef %82, ptr noundef %3, ptr noundef %83)
  %84 = load ptr, ptr %14, align 8, !tbaa !29
  %85 = load ptr, ptr %67, align 8, !tbaa !36
  call fastcc void @fill_items(ptr noundef %84, ptr noundef %4, ptr noundef %85)
  %86 = load ptr, ptr %17, align 8, !tbaa !30
  %87 = load ptr, ptr %71, align 8, !tbaa !37
  call fastcc void @fill_items(ptr noundef %86, ptr noundef %5, ptr noundef %87)
  %88 = load i32, ptr %2, align 4, !tbaa !38
  %89 = load i32, ptr %3, align 4, !tbaa !38
  %.not52 = icmp eq i32 %88, %89
  %90 = load i32, ptr %4, align 4
  %.not53 = icmp eq i32 %88, %90
  %or.cond57 = select i1 %.not52, i1 true, i1 %.not53
  %91 = load i32, ptr %5, align 4
  %.not54 = icmp eq i32 %88, %91
  %or.cond58 = select i1 %or.cond57, i1 true, i1 %.not54
  br i1 %or.cond58, label %93, label %92

92:                                               ; preds = %80
  tail call void (ptr, i32, ptr, ...) @av_log(ptr noundef %0, i32 noundef 16, ptr noundef nonnull @.str.19) #8
  br label %108

93:                                               ; preds = %80
  %94 = getelementptr inbounds nuw i8, ptr %7, i64 120
  store i32 %88, ptr %94, align 8, !tbaa !39
  %95 = icmp slt i32 %88, 1
  br i1 %95, label %96, label %97

96:                                               ; preds = %93
  tail call void (ptr, i32, ptr, ...) @av_log(ptr noundef %0, i32 noundef 16, ptr noundef nonnull @.str.20) #8
  br label %108

97:                                               ; preds = %93
  %98 = zext nneg i32 %88 to i64
  %99 = tail call noalias ptr @av_calloc(i64 noundef %98, i64 noundef 4) #8
  %100 = getelementptr inbounds nuw i8, ptr %7, i64 96
  store ptr %99, ptr %100, align 8, !tbaa !40
  %101 = load i32, ptr %94, align 8, !tbaa !39
  %102 = sext i32 %101 to i64
  %103 = tail call noalias ptr @av_calloc(i64 noundef %102, i64 noundef 8) #8
  %104 = getelementptr inbounds nuw i8, ptr %7, i64 104
  store ptr %103, ptr %104, align 8, !tbaa !41
  %105 = load ptr, ptr %100, align 8, !tbaa !40
  %.not55 = icmp eq ptr %105, null
  %.not56 = icmp eq ptr %103, null
  %or.cond59 = select i1 %.not55, i1 true, i1 %.not56
  br i1 %or.cond59, label %108, label %106

106:                                              ; preds = %97
  %107 = getelementptr inbounds nuw i8, ptr %7, i64 144
  store i64 -9223372036854775808, ptr %107, align 8, !tbaa !42
  br label %108

108:                                              ; preds = %97, %count_items.exit65, %76, %78, %106, %96, %92, %19
  %.0 = phi i32 [ -22, %92 ], [ -22, %96 ], [ 0, %106 ], [ -22, %19 ], [ -12, %78 ], [ -12, %76 ], [ -12, %count_items.exit65 ], [ -12, %97 ]
  call void @llvm.lifetime.end.p0(i64 4, ptr nonnull %5) #8
  call void @llvm.lifetime.end.p0(i64 4, ptr nonnull %4) #8
  call void @llvm.lifetime.end.p0(i64 4, ptr nonnull %3) #8
  call void @llvm.lifetime.end.p0(i64 4, ptr nonnull %2) #8
  ret i32 %.0
}